; Function Attrs: mustprogress nounwind
define internal noundef ptr @_ZN3tbb6detail2d113function_taskIZN4mold3elfL15new_shared_fileINS4_4I386EEEPNS4_10SharedFileIT_EERNS4_7ContextIS8_EEPNS3_10MappedFileISC_EEEUlvE_E7executeERNS1_14execution_dataE(ptr noundef nonnull align 64 dereferenceable(96) %this, ptr noundef nonnull align 8 dereferenceable(12) %ed) unnamed_addr #4 align 2 {
entry:
  %m_func = getelementptr inbounds i8, ptr %this, i64 64
  %m_func.val = load ptr, ptr %m_func, align 64
  %0 = getelementptr inbounds i8, ptr %this, i64 72
  %m_func.val1 = load ptr, ptr %0, align 8
  tail call void @_ZN4mold3elf10SharedFileINS0_4I386EE5parseERNS0_7ContextIS2_EE(ptr noundef nonnull align 8 dereferenceable(424) %m_func.val, ptr noundef nonnull align 8 dereferenceable(4568) %m_func.val1) #17
  %m_wait_ctx.i = getelementptr inbounds i8, ptr %this, i64 80
  %1 = load ptr, ptr %m_wait_ctx.i, align 16
  %m_allocator.i = getelementptr inbounds i8, ptr %this, i64 88
  %2 = load i64, ptr %m_allocator.i, align 8
  %vtable.i = load ptr, ptr %this, align 64
  %3 = load ptr, ptr %vtable.i, align 8
  tail call void %3(ptr noundef nonnull align 64 dereferenceable(96) %this) #17
  %m_ref_count.i.i.i = getelementptr inbounds i8, ptr %1, i64 8
  %4 = atomicrmw add ptr %m_ref_count.i.i.i, i64 -1 seq_cst, align 8
  %tobool.not.i.i.i = icmp eq i64 %4, 1
  br i1 %tobool.not.i.i.i, label %if.then.i.i.i, label %_ZN3tbb6detail2d113function_taskIZN4mold3elfL15new_shared_fileINS4_4I386EEEPNS4_10SharedFileIT_EERNS4_7ContextIS8_EEPNS3_10MappedFileISC_EEEUlvE_E8finalizeERKNS1_14execution_dataE.exit

if.then.i.i.i:                                    ; preds = %entry
  %5 = ptrtoint ptr %1 to i64
  tail call void @_ZN3tbb6detail2r114notify_waitersEm(i64 noundef %5) #17
  br label %_ZN3tbb6detail2d113function_taskIZN4mold3elfL15new_shared_fileINS4_4I386EEEPNS4_10SharedFileIT_EERNS4_7ContextIS8_EEPNS3_10MappedFileISC_EEEUlvE_E8finalizeERKNS1_14execution_dataE.exit

_ZN3tbb6detail2d113function_taskIZN4mold3elfL15new_shared_fileINS4_4I386EEEPNS4_10SharedFileIT_EERNS4_7ContextIS8_EEPNS3_10MappedFileISC_EEEUlvE_E8finalizeERKNS1_14execution_dataE.exit: ; preds = %entry, %if.then.i.i.i
  %6 = inttoptr i64 %2 to ptr
  tail call void @_ZN3tbb6detail2r110deallocateERNS0_2d117small_object_poolEPvmRKNS2_14execution_dataE(ptr noundef nonnull align 1 dereferenceable(1) %6, ptr noundef nonnull %this, i64 noundef 128, ptr noundef nonnull align 8 dereferenceable(12) %ed) #17
  ret ptr null
}